; Function Attrs: nounwind uwtable
define dso_local void @Curl_ssl_free_certinfo(ptr noundef captures(none) %0) local_unnamed_addr #2 {
  %2 = getelementptr inbounds nuw i8, ptr %0, i64 5160
  %3 = load i32, ptr %2, align 8
  %.not = icmp eq i32 %3, 0
  br i1 %.not, label %18, label %.preheader

.preheader:                                       ; preds = %1
  %4 = icmp sgt i32 %3, 0
  br i1 %4, label %.lr.ph, label %._crit_edge

.lr.ph:                                           ; preds = %.preheader
  %5 = getelementptr inbounds nuw i8, ptr %0, i64 5168
  br label %6

6:                                                ; preds = %.lr.ph, %6
  %indvars.iv = phi i64 [ 0, %.lr.ph ], [ %indvars.iv.next, %6 ]
  %7 = load ptr, ptr %5, align 8
  %8 = getelementptr inbounds nuw ptr, ptr %7, i64 %indvars.iv
  %9 = load ptr, ptr %8, align 8
  tail call void @curl_slist_free_all(ptr noundef %9) #18
  %10 = load ptr, ptr %5, align 8
  %11 = getelementptr inbounds nuw ptr, ptr %10, i64 %indvars.iv
  store ptr null, ptr %11, align 8
  %indvars.iv.next = add nuw nsw i64 %indvars.iv, 1
  %12 = load i32, ptr %2, align 8
  %13 = sext i32 %12 to i64
  %14 = icmp slt i64 %indvars.iv.next, %13
  br i1 %14, label %6, label %._crit_edge, !llvm.loop !11

._crit_edge:                                      ; preds = %6, %.preheader
  %15 = load ptr, ptr @Curl_cfree, align 8
  %16 = getelementptr inbounds nuw i8, ptr %0, i64 5168
  %17 = load ptr, ptr %16, align 8
  tail call void %15(ptr noundef %17) #18
  store ptr null, ptr %16, align 8
  store i32 0, ptr %2, align 8
  br label %18

18:                                               ; preds = %._crit_edge, %1
  ret void
}